target datalayout = "e-m:e-p270:32:32-p271:32:32-p272:64:64-i64:64-i128:128-f80:128-n8:16:32:64-S128"
target triple = "x86_64-unknown-linux-gnu"

%"class.std::set.0" = type { %"class.std::_Rb_tree.1" }
%"class.std::_Rb_tree.1" = type { %"struct.std::_Rb_tree<QuantLib::Observer *, QuantLib::Observer *, std::_Identity<QuantLib::Observer *>, std::less<QuantLib::Observer *>>::_Rb_tree_impl" }
%"struct.std::_Rb_tree<QuantLib::Observer *, QuantLib::Observer *, std::_Identity<QuantLib::Observer *>, std::less<QuantLib::Observer *>>::_Rb_tree_impl" = type { [8 x i8], %"struct.std::_Rb_tree_header" }
%"struct.std::_Rb_tree_header" = type { %"struct.std::_Rb_tree_node_base", i64 }
%"struct.std::_Rb_tree_node_base" = type { i32, ptr, ptr, ptr }
%"class.std::set" = type { %"class.std::_Rb_tree" }
%"class.std::_Rb_tree" = type { %"struct.std::_Rb_tree<boost::shared_ptr<QuantLib::Observable>, boost::shared_ptr<QuantLib::Observable>, std::_Identity<boost::shared_ptr<QuantLib::Observable>>, std::less<boost::shared_ptr<QuantLib::Observable>>>::_Rb_tree_impl" }
%"struct.std::_Rb_tree<boost::shared_ptr<QuantLib::Observable>, boost::shared_ptr<QuantLib::Observable>, std::_Identity<boost::shared_ptr<QuantLib::Observable>>, std::less<boost::shared_ptr<QuantLib::Observable>>>::_Rb_tree_impl" = type { [8 x i8], %"struct.std::_Rb_tree_header" }
%"class.boost::detail::shared_count" = type { ptr }
%"class.QuantLib::Observable" = type { ptr, %"class.std::set.0" }
%"class.QuantLib::Observer" = type { ptr, %"class.std::set" }
%"class.QuantLib::Calendar" = type { %"class.boost::shared_ptr.7" }
%"class.boost::shared_ptr.7" = type { ptr, %"class.boost::detail::shared_count" }
%"class.QuantLib::EquityTotalReturnSwap" = type { %"class.QuantLib::Swap.base", %"class.boost::shared_ptr.59", %"class.boost::shared_ptr.60", i32, double, %"class.QuantLib::Schedule", %"class.QuantLib::DayCounter", double, double, %"class.QuantLib::Calendar", i32, i32, %"class.QuantLib::Observable", %"class.QuantLib::Observer" }
%"class.QuantLib::Swap.base" = type { %"class.QuantLib::Instrument.base", %"class.std::vector.70", %"class.std::vector.22", %"class.std::vector.22", %"class.std::vector.22", %"class.std::vector.22", %"class.std::vector.22", double }
%"class.QuantLib::Instrument.base" = type { %"class.QuantLib::LazyObject.base", double, double, %"class.QuantLib::Date", %"class.std::map.33", %"class.boost::shared_ptr.39" }
%"class.QuantLib::LazyObject.base" = type <{ ptr, i8, i8, i8, i8 }>
%"class.QuantLib::Date" = type { i64 }
%"class.std::map.33" = type { %"class.std::_Rb_tree.34" }
%"class.std::_Rb_tree.34" = type { %"struct.std::_Rb_tree<std::__cxx11::basic_string<char>, std::pair<const std::__cxx11::basic_string<char>, boost::any>, std::_Select1st<std::pair<const std::__cxx11::basic_string<char>, boost::any>>, std::less<std::__cxx11::basic_string<char>>>::_Rb_tree_impl" }
%"struct.std::_Rb_tree<std::__cxx11::basic_string<char>, std::pair<const std::__cxx11::basic_string<char>, boost::any>, std::_Select1st<std::pair<const std::__cxx11::basic_string<char>, boost::any>>, std::less<std::__cxx11::basic_string<char>>>::_Rb_tree_impl" = type { [8 x i8], %"struct.std::_Rb_tree_header" }
%"class.boost::shared_ptr.39" = type { ptr, %"class.boost::detail::shared_count" }
%"class.std::vector.70" = type { %"struct.std::_Vector_base.71" }
%"struct.std::_Vector_base.71" = type { %"struct.std::_Vector_base<std::vector<boost::shared_ptr<QuantLib::CashFlow>>, std::allocator<std::vector<boost::shared_ptr<QuantLib::CashFlow>>>>::_Vector_impl" }
%"struct.std::_Vector_base<std::vector<boost::shared_ptr<QuantLib::CashFlow>>, std::allocator<std::vector<boost::shared_ptr<QuantLib::CashFlow>>>>::_Vector_impl" = type { %"struct.std::_Vector_base<std::vector<boost::shared_ptr<QuantLib::CashFlow>>, std::allocator<std::vector<boost::shared_ptr<QuantLib::CashFlow>>>>::_Vector_impl_data" }
%"struct.std::_Vector_base<std::vector<boost::shared_ptr<QuantLib::CashFlow>>, std::allocator<std::vector<boost::shared_ptr<QuantLib::CashFlow>>>>::_Vector_impl_data" = type { ptr, ptr, ptr }
%"class.std::vector.22" = type { %"struct.std::_Vector_base.23" }
%"struct.std::_Vector_base.23" = type { %"struct.std::_Vector_base<double, std::allocator<double>>::_Vector_impl" }
%"struct.std::_Vector_base<double, std::allocator<double>>::_Vector_impl" = type { %"struct.std::_Vector_base<double, std::allocator<double>>::_Vector_impl_data" }
%"struct.std::_Vector_base<double, std::allocator<double>>::_Vector_impl_data" = type { ptr, ptr, ptr }
%"class.boost::shared_ptr.59" = type { ptr, %"class.boost::detail::shared_count" }
%"class.boost::shared_ptr.60" = type { ptr, %"class.boost::detail::shared_count" }
%"class.QuantLib::Schedule" = type { %"class.boost::optional", %"class.QuantLib::Calendar", i32, %"class.boost::optional.61", %"class.boost::optional.62", %"class.boost::optional.64", %"class.QuantLib::Date", %"class.QuantLib::Date", %"class.std::vector.17", %"class.std::vector.66" }
%"class.boost::optional" = type { %"class.boost::optional_detail::optional_base" }
%"class.boost::optional_detail::optional_base" = type { i8, [3 x i8], %"class.boost::optional_detail::aligned_storage" }
%"class.boost::optional_detail::aligned_storage" = type { %"union.boost::optional_detail::aligned_storage<QuantLib::Period>::dummy_u" }
%"union.boost::optional_detail::aligned_storage<QuantLib::Period>::dummy_u" = type { [8 x i8] }
%"class.boost::optional.61" = type { %"class.boost::optional_detail::tc_optional_base" }
%"class.boost::optional_detail::tc_optional_base" = type { i8, i32 }
%"class.boost::optional.62" = type { %"class.boost::optional_detail::tc_optional_base.63" }
%"class.boost::optional_detail::tc_optional_base.63" = type { i8, i32 }
%"class.boost::optional.64" = type { %"class.boost::optional_detail::tc_optional_base.65" }
%"class.boost::optional_detail::tc_optional_base.65" = type { i8, i8 }
%"class.std::vector.17" = type { %"struct.std::_Vector_base.18" }
%"struct.std::_Vector_base.18" = type { %"struct.std::_Vector_base<QuantLib::Date, std::allocator<QuantLib::Date>>::_Vector_impl" }
%"struct.std::_Vector_base<QuantLib::Date, std::allocator<QuantLib::Date>>::_Vector_impl" = type { %"struct.std::_Vector_base<QuantLib::Date, std::allocator<QuantLib::Date>>::_Vector_impl_data" }
%"struct.std::_Vector_base<QuantLib::Date, std::allocator<QuantLib::Date>>::_Vector_impl_data" = type { ptr, ptr, ptr }
%"class.std::vector.66" = type { %"struct.std::_Bvector_base" }
%"struct.std::_Bvector_base" = type { %"struct.std::_Bvector_base<std::allocator<bool>>::_Bvector_impl" }
%"struct.std::_Bvector_base<std::allocator<bool>>::_Bvector_impl" = type { %"struct.std::_Bvector_base<std::allocator<bool>>::_Bvector_impl_data" }
%"struct.std::_Bvector_base<std::allocator<bool>>::_Bvector_impl_data" = type { %"struct.std::_Bit_iterator", %"struct.std::_Bit_iterator", ptr }
%"struct.std::_Bit_iterator" = type { %"struct.std::_Bit_iterator_base.base", [4 x i8] }
%"struct.std::_Bit_iterator_base.base" = type <{ ptr, i32 }>
%"class.QuantLib::DayCounter" = type { %"class.boost::shared_ptr.6" }
%"class.boost::shared_ptr.6" = type { ptr, %"class.boost::detail::shared_count" }

; Function Attrs: mustprogress uwtable
define noundef double @_ZNK8QuantLib21EquityTotalReturnSwap12equityLegNPVEv(ptr noundef nonnull align 8 dereferenceable(496) %this) #2 align 2 {
entry:
  %this.addr = alloca ptr, align 8
  store ptr %this, ptr %this.addr, align 8, !tbaa !3
  %this1 = load ptr, ptr %this.addr, align 8
  %call = call noundef double @_ZNK8QuantLib4Swap6legNPVEm(ptr noundef nonnull align 8 dereferenceable(256) %this1, i64 noundef 0)
  ret double %call
}

; Function Attrs: mustprogress nounwind uwtable
define linkonce_odr noundef double @_ZNK8QuantLib21EquityTotalReturnSwap6marginEv(ptr noundef nonnull align 8 dereferenceable(496) %this) #1 comdat align 2 {
entry:
  %this.addr = alloca ptr, align 8
  store ptr %this, ptr %this.addr, align 8, !tbaa !3
  %this1 = load ptr, ptr %this.addr, align 8
  %margin_ = getelementptr inbounds nuw %"class.QuantLib::EquityTotalReturnSwap", ptr %this1, i32 0, i32 7
  %0 = load double, ptr %margin_, align 8, !tbaa !83
  ret double %0
}

; Function Attrs: mustprogress uwtable
define noundef double @_ZNK8QuantLib21EquityTotalReturnSwap18interestRateLegNPVEv(ptr noundef nonnull align 8 dereferenceable(496) %this) #2 align 2 {
entry:
  %this.addr = alloca ptr, align 8
  store ptr %this, ptr %this.addr, align 8, !tbaa !3
  %this1 = load ptr, ptr %this.addr, align 8
  %call = call noundef double @_ZNK8QuantLib4Swap6legNPVEm(ptr noundef nonnull align 8 dereferenceable(256) %this1, i64 noundef 1)
  ret double %call
}

; Function Attrs: mustprogress uwtable
define noundef double @_ZNK8QuantLib21EquityTotalReturnSwap10fairMarginEv(ptr noundef nonnull align 8 dereferenceable(496) %this) #2 align 2 {
entry:
  %this.addr = alloca ptr, align 8
  %basisPoint = alloca double, align 8
  %interestLegBps = alloca double, align 8
  %exMarginInterestLegNpv = alloca double, align 8
  store ptr %this, ptr %this.addr, align 8, !tbaa !3
  %this1 = load ptr, ptr %this.addr, align 8
  call void @llvm.lifetime.start.p0(i64 8, ptr %basisPoint) #14
  store double 1.000000e-04, ptr %basisPoint, align 8, !tbaa !26
  call void @llvm.lifetime.start.p0(i64 8, ptr %interestLegBps) #14
  %call = call noundef double @_ZNK8QuantLib4Swap6legBPSEm(ptr noundef nonnull align 8 dereferenceable(256) %this1, i64 noundef 1)
  %div = fdiv double %call, 1.000000e-04
  store double %div, ptr %interestLegBps, align 8, !tbaa !26
  call void @llvm.lifetime.start.p0(i64 8, ptr %exMarginInterestLegNpv) #14
  %call2 = call noundef double @_ZNK8QuantLib21EquityTotalReturnSwap18interestRateLegNPVEv(ptr noundef nonnull align 8 dereferenceable(496) %this1)
  %call3 = call noundef double @_ZNK8QuantLib21EquityTotalReturnSwap6marginEv(ptr noundef nonnull align 8 dereferenceable(496) %this1)
  %0 = load double, ptr %interestLegBps, align 8, !tbaa !26
  %neg = fneg double %call3
  %1 = call double @llvm.fmuladd.f64(double %neg, double %0, double %call2)
  store double %1, ptr %exMarginInterestLegNpv, align 8, !tbaa !26
  %call4 = call noundef double @_ZNK8QuantLib21EquityTotalReturnSwap12equityLegNPVEv(ptr noundef nonnull align 8 dereferenceable(496) %this1)
  %2 = load double, ptr %exMarginInterestLegNpv, align 8, !tbaa !26
  %add = fadd double %call4, %2
  %fneg = fneg double %add
  %3 = load double, ptr %interestLegBps, align 8, !tbaa !26
  %div5 = fdiv double %fneg, %3
  call void @llvm.lifetime.end.p0(i64 8, ptr %exMarginInterestLegNpv) #14
  call void @llvm.lifetime.end.p0(i64 8, ptr %interestLegBps) #14
  call void @llvm.lifetime.end.p0(i64 8, ptr %basisPoint) #14
  ret double %div5
}