; Function Attrs: mustprogress uwtable
define noundef double @_ZNK8QuantLib21EquityTotalReturnSwap10fairMarginEv(ptr noundef nonnull align 8 dereferenceable(496) %this) local_unnamed_addr #7 align 2 {
entry:
  %call = tail call noundef double @_ZNK8QuantLib4Swap6legBPSEm(ptr noundef nonnull align 8 dereferenceable(256) %this, i64 noundef 1)
  %div = fdiv double %call, 1.000000e-04
  %call.i = tail call noundef double @_ZNK8QuantLib4Swap6legNPVEm(ptr noundef nonnull align 8 dereferenceable(256) %this, i64 noundef 1)
  %margin_.i = getelementptr inbounds nuw i8, ptr %this, i64 456
  %0 = load double, ptr %margin_.i, align 8, !tbaa !103
  %neg = fneg double %0
  %1 = tail call double @llvm.fmuladd.f64(double %neg, double %div, double %call.i)
  %call.i2 = tail call noundef double @_ZNK8QuantLib4Swap6legNPVEm(ptr noundef nonnull align 8 dereferenceable(256) %this, i64 noundef 0)
  %add = fadd double %call.i2, %1
  %fneg = fneg double %add
  %div5 = fdiv double %fneg, %div
  ret double %div5
}